target datalayout = "e-m:e-p270:32:32-p271:32:32-p272:64:64-i64:64-i128:128-f80:128-n8:16:32:64-S128"
target triple = "x86_64-pc-linux-gnu"

%struct.uv_handle_s = type { ptr, ptr, i32, ptr, %struct.uv__queue, %union.anon.0, ptr, i32 }
%struct.uv__queue = type { ptr, ptr }
%union.anon.0 = type { [4 x ptr] }
%struct.uv_loop_s = type { ptr, i32, %struct.uv__queue, %union.anon.1, ptr, i32, i64, i32, %struct.uv__queue, %struct.uv__queue, ptr, i32, i32, %struct.uv__queue, %union.pthread_mutex_t, %struct.uv_async_s, %union.pthread_rwlock_t, ptr, %struct.uv__queue, %struct.uv__queue, %struct.uv__queue, %struct.uv__queue, %struct.uv__queue, ptr, %struct.uv__io_s, i32, %struct.anon, i64, i64, [2 x i32], %struct.uv__io_s, %struct.uv_signal_s, i32, %struct.uv__io_s, ptr, i32 }
%union.anon.1 = type { ptr }
%union.pthread_mutex_t = type { %struct.__pthread_mutex_s }
%struct.__pthread_mutex_s = type { i32, i32, i32, i32, i32, i16, i16, %struct.__pthread_internal_list }
%struct.__pthread_internal_list = type { ptr, ptr }
%struct.uv_async_s = type { ptr, ptr, i32, ptr, %struct.uv__queue, %union.anon, ptr, i32, ptr, %struct.uv__queue, i32 }
%union.anon = type { [4 x ptr] }
%union.pthread_rwlock_t = type { %struct.__pthread_rwlock_arch_t }
%struct.__pthread_rwlock_arch_t = type { i32, i32, i32, i32, i32, i32, i32, i32, i8, [7 x i8], i64, i32 }
%struct.anon = type { ptr, i32 }
%struct.uv_signal_s = type { ptr, ptr, i32, ptr, %struct.uv__queue, %union.anon.2, ptr, i32, ptr, i32, %struct.anon.3, i32, i32 }
%union.anon.2 = type { [4 x ptr] }
%struct.anon.3 = type { ptr, ptr, ptr, i32 }
%struct.uv__io_s = type { ptr, %struct.uv__queue, %struct.uv__queue, i32, i32, i32 }

; Function Attrs: inlinehint nounwind uwtable
define internal void @uv__queue_insert_tail(ptr noundef %0, ptr noundef %1) #2 {
  %3 = alloca ptr, align 8
  %4 = alloca ptr, align 8
  store ptr %0, ptr %3, align 8
  store ptr %1, ptr %4, align 8
  %5 = load ptr, ptr %3, align 8
  %6 = load ptr, ptr %4, align 8
  %7 = getelementptr inbounds nuw %struct.uv__queue, ptr %6, i32 0, i32 0
  store ptr %5, ptr %7, align 8
  %8 = load ptr, ptr %3, align 8
  %9 = getelementptr inbounds nuw %struct.uv__queue, ptr %8, i32 0, i32 1
  %10 = load ptr, ptr %9, align 8
  %11 = load ptr, ptr %4, align 8
  %12 = getelementptr inbounds nuw %struct.uv__queue, ptr %11, i32 0, i32 1
  store ptr %10, ptr %12, align 8
  %13 = load ptr, ptr %4, align 8
  %14 = load ptr, ptr %4, align 8
  %15 = getelementptr inbounds nuw %struct.uv__queue, ptr %14, i32 0, i32 1
  %16 = load ptr, ptr %15, align 8
  %17 = getelementptr inbounds nuw %struct.uv__queue, ptr %16, i32 0, i32 0
  store ptr %13, ptr %17, align 8
  %18 = load ptr, ptr %4, align 8
  %19 = load ptr, ptr %3, align 8
  %20 = getelementptr inbounds nuw %struct.uv__queue, ptr %19, i32 0, i32 1
  store ptr %18, ptr %20, align 8
  ret void
}

; Function Attrs: nounwind uwtable
define internal i32 @uv__async_start(ptr noundef %0) #0 {
  %2 = alloca i32, align 4
  %3 = alloca ptr, align 8
  %4 = alloca [2 x i32], align 4
  %5 = alloca i32, align 4
  %6 = alloca i32, align 4
  store ptr %0, ptr %3, align 8
  call void @llvm.lifetime.start.p0(i64 8, ptr %4) #7
  call void @llvm.lifetime.start.p0(i64 4, ptr %5) #7
  %7 = load ptr, ptr %3, align 8
  %8 = getelementptr inbounds nuw %struct.uv_loop_s, ptr %7, i32 0, i32 24
  %9 = getelementptr inbounds nuw %struct.uv__io_s, ptr %8, i32 0, i32 5
  %10 = load i32, ptr %9, align 8
  %11 = icmp ne i32 %10, -1
  br i1 %11, label %12, label %13

12:                                               ; preds = %1
  store i32 0, ptr %2, align 4
  store i32 1, ptr %6, align 4
  br label %36

13:                                               ; preds = %1
  %14 = call i32 @eventfd(i32 noundef 0, i32 noundef 526336) #7
  store i32 %14, ptr %5, align 4
  %15 = load i32, ptr %5, align 4
  %16 = icmp slt i32 %15, 0
  br i1 %16, label %17, label %21

17:                                               ; preds = %13
  %18 = call ptr @__errno_location() #8
  %19 = load i32, ptr %18, align 4
  %20 = sub nsw i32 0, %19
  store i32 %20, ptr %2, align 4
  store i32 1, ptr %6, align 4
  br label %36

21:                                               ; preds = %13
  %22 = load i32, ptr %5, align 4
  %23 = getelementptr inbounds [2 x i32], ptr %4, i64 0, i64 0
  store i32 %22, ptr %23, align 4
  %24 = getelementptr inbounds [2 x i32], ptr %4, i64 0, i64 1
  store i32 -1, ptr %24, align 4
  %25 = load ptr, ptr %3, align 8
  %26 = getelementptr inbounds nuw %struct.uv_loop_s, ptr %25, i32 0, i32 24
  %27 = getelementptr inbounds [2 x i32], ptr %4, i64 0, i64 0
  %28 = load i32, ptr %27, align 4
  call void @uv__io_init(ptr noundef %26, ptr noundef @uv__async_io, i32 noundef %28)
  %29 = load ptr, ptr %3, align 8
  %30 = load ptr, ptr %3, align 8
  %31 = getelementptr inbounds nuw %struct.uv_loop_s, ptr %30, i32 0, i32 24
  call void @uv__io_start(ptr noundef %29, ptr noundef %31, i32 noundef 1)
  %32 = getelementptr inbounds [2 x i32], ptr %4, i64 0, i64 1
  %33 = load i32, ptr %32, align 4
  %34 = load ptr, ptr %3, align 8
  %35 = getelementptr inbounds nuw %struct.uv_loop_s, ptr %34, i32 0, i32 25
  store i32 %33, ptr %35, align 8
  store i32 0, ptr %2, align 4
  store i32 1, ptr %6, align 4
  br label %36

36:                                               ; preds = %21, %17, %12
  call void @llvm.lifetime.end.p0(i64 4, ptr %5) #7
  call void @llvm.lifetime.end.p0(i64 8, ptr %4) #7
  %37 = load i32, ptr %2, align 4
  ret i32 %37
}

; Function Attrs: nounwind uwtable
define dso_local i32 @uv_async_init(ptr noundef %0, ptr noundef %1, ptr noundef %2) #0 {
  %4 = alloca i32, align 4
  %5 = alloca ptr, align 8
  %6 = alloca ptr, align 8
  %7 = alloca ptr, align 8
  %8 = alloca i32, align 4
  %9 = alloca i32, align 4
  store ptr %0, ptr %5, align 8
  store ptr %1, ptr %6, align 8
  store ptr %2, ptr %7, align 8
  call void @llvm.lifetime.start.p0(i64 4, ptr %8) #7
  %10 = load ptr, ptr %5, align 8
  %11 = call i32 @uv__async_start(ptr noundef %10)
  store i32 %11, ptr %8, align 4
  %12 = load i32, ptr %8, align 4
  %13 = icmp ne i32 %12, 0
  br i1 %13, label %14, label %16

14:                                               ; preds = %3
  %15 = load i32, ptr %8, align 4
  store i32 %15, ptr %4, align 4
  store i32 1, ptr %9, align 4
  br label %74

16:                                               ; preds = %3
  br label %17

17:                                               ; preds = %16
  %18 = load ptr, ptr %5, align 8
  %19 = load ptr, ptr %6, align 8
  %20 = getelementptr inbounds nuw %struct.uv_handle_s, ptr %19, i32 0, i32 1
  store ptr %18, ptr %20, align 8
  %21 = load ptr, ptr %6, align 8
  %22 = getelementptr inbounds nuw %struct.uv_handle_s, ptr %21, i32 0, i32 2
  store i32 1, ptr %22, align 8
  %23 = load ptr, ptr %6, align 8
  %24 = getelementptr inbounds nuw %struct.uv_handle_s, ptr %23, i32 0, i32 7
  store i32 8, ptr %24, align 8
  %25 = load ptr, ptr %5, align 8
  %26 = getelementptr inbounds nuw %struct.uv_loop_s, ptr %25, i32 0, i32 2
  %27 = load ptr, ptr %6, align 8
  %28 = getelementptr inbounds nuw %struct.uv_handle_s, ptr %27, i32 0, i32 4
  call void @uv__queue_insert_tail(ptr noundef %26, ptr noundef %28)
  %29 = load ptr, ptr %6, align 8
  %30 = getelementptr inbounds nuw %struct.uv_handle_s, ptr %29, i32 0, i32 6
  store ptr null, ptr %30, align 8
  br label %31

31:                                               ; preds = %17
  br label %32

32:                                               ; preds = %31
  %33 = load ptr, ptr %7, align 8
  %34 = load ptr, ptr %6, align 8
  %35 = getelementptr inbounds nuw %struct.uv_async_s, ptr %34, i32 0, i32 8
  store ptr %33, ptr %35, align 8
  %36 = load ptr, ptr %6, align 8
  %37 = getelementptr inbounds nuw %struct.uv_async_s, ptr %36, i32 0, i32 10
  store i32 0, ptr %37, align 8
  %38 = load ptr, ptr %6, align 8
  %39 = getelementptr inbounds nuw %struct.uv_async_s, ptr %38, i32 0, i32 5
  store i32 0, ptr %39, align 8
  %40 = load ptr, ptr %5, align 8
  %41 = getelementptr inbounds nuw %struct.uv_loop_s, ptr %40, i32 0, i32 22
  %42 = load ptr, ptr %6, align 8
  %43 = getelementptr inbounds nuw %struct.uv_async_s, ptr %42, i32 0, i32 9
  call void @uv__queue_insert_tail(ptr noundef %41, ptr noundef %43)
  br label %44

44:                                               ; preds = %32
  %45 = load ptr, ptr %6, align 8
  %46 = getelementptr inbounds nuw %struct.uv_async_s, ptr %45, i32 0, i32 7
  %47 = load i32, ptr %46, align 8
  %48 = and i32 %47, 4
  %49 = icmp ne i32 %48, 0
  br i1 %49, label %50, label %51

50:                                               ; preds = %44
  br label %73

51:                                               ; preds = %44
  %52 = load ptr, ptr %6, align 8
  %53 = getelementptr inbounds nuw %struct.uv_async_s, ptr %52, i32 0, i32 7
  %54 = load i32, ptr %53, align 8
  %55 = or i32 %54, 4
  store i32 %55, ptr %53, align 8
  %56 = load ptr, ptr %6, align 8
  %57 = getelementptr inbounds nuw %struct.uv_async_s, ptr %56, i32 0, i32 7
  %58 = load i32, ptr %57, align 8
  %59 = and i32 %58, 8
  %60 = icmp ne i32 %59, 0
  br i1 %60, label %61, label %71

61:                                               ; preds = %51
  br label %62

62:                                               ; preds = %61
  %63 = load ptr, ptr %6, align 8
  %64 = getelementptr inbounds nuw %struct.uv_async_s, ptr %63, i32 0, i32 1
  %65 = load ptr, ptr %64, align 8
  %66 = getelementptr inbounds nuw %struct.uv_loop_s, ptr %65, i32 0, i32 1
  %67 = load i32, ptr %66, align 8
  %68 = add i32 %67, 1
  store i32 %68, ptr %66, align 8
  br label %69

69:                                               ; preds = %62
  br label %70

70:                                               ; preds = %69
  br label %71

71:                                               ; preds = %70, %51
  br label %72

72:                                               ; preds = %71
  br label %73

73:                                               ; preds = %72, %50
  store i32 0, ptr %4, align 4
  store i32 1, ptr %9, align 4
  br label %74

74:                                               ; preds = %73, %14
  call void @llvm.lifetime.end.p0(i64 4, ptr %8) #7
  %75 = load i32, ptr %4, align 4
  ret i32 %75
}