; Function Attrs: nounwind uwtable
define dso_local range(i32 -2147483647, -2147483648) i32 @uv_async_init(ptr noundef %0, ptr noundef %1, ptr noundef %2) local_unnamed_addr #0 {
  %4 = getelementptr inbounds nuw i8, ptr %0, i64 456
  %5 = getelementptr inbounds nuw i8, ptr %0, i64 504
  %6 = load i32, ptr %5, align 8
  %.not.i = icmp eq i32 %6, -1
  br i1 %.not.i, label %7, label %uv__async_start.exit.thread

7:                                                ; preds = %3
  %8 = tail call i32 @eventfd(i32 noundef 0, i32 noundef 526336) #8
  %9 = icmp slt i32 %8, 0
  br i1 %9, label %uv__async_start.exit, label %10

10:                                               ; preds = %7
  tail call void @uv__io_init(ptr noundef nonnull %4, ptr noundef nonnull @uv__async_io, i32 noundef %8) #8
  tail call void @uv__io_start(ptr noundef nonnull %0, ptr noundef nonnull %4, i32 noundef 1) #8
  %11 = getelementptr inbounds nuw i8, ptr %0, i64 512
  store i32 -1, ptr %11, align 8
  br label %uv__async_start.exit.thread

uv__async_start.exit:                             ; preds = %7
  %12 = tail call ptr @__errno_location() #9
  %13 = load i32, ptr %12, align 4
  %14 = sub nsw i32 0, %13
  %.not = icmp eq i32 %13, 0
  br i1 %.not, label %uv__async_start.exit.thread, label %42

uv__async_start.exit.thread:                      ; preds = %3, %10, %uv__async_start.exit
  %15 = getelementptr inbounds nuw i8, ptr %1, i64 8
  store ptr %0, ptr %15, align 8
  %16 = getelementptr inbounds nuw i8, ptr %1, i64 16
  store i32 1, ptr %16, align 8
  %17 = getelementptr inbounds nuw i8, ptr %1, i64 88
  store i32 8, ptr %17, align 8
  %18 = getelementptr inbounds nuw i8, ptr %0, i64 16
  %19 = getelementptr inbounds nuw i8, ptr %1, i64 32
  store ptr %18, ptr %19, align 8
  %20 = getelementptr inbounds nuw i8, ptr %0, i64 24
  %21 = load ptr, ptr %20, align 8
  %22 = getelementptr inbounds nuw i8, ptr %1, i64 40
  store ptr %21, ptr %22, align 8
  store ptr %19, ptr %21, align 8
  store ptr %19, ptr %20, align 8
  %23 = getelementptr inbounds nuw i8, ptr %1, i64 80
  store ptr null, ptr %23, align 8
  %24 = getelementptr inbounds nuw i8, ptr %1, i64 96
  store ptr %2, ptr %24, align 8
  %25 = getelementptr inbounds nuw i8, ptr %1, i64 120
  store i32 0, ptr %25, align 8
  %26 = getelementptr inbounds nuw i8, ptr %1, i64 48
  store i32 0, ptr %26, align 8
  %27 = getelementptr inbounds nuw i8, ptr %0, i64 432
  %28 = getelementptr inbounds nuw i8, ptr %1, i64 104
  store ptr %27, ptr %28, align 8
  %29 = getelementptr inbounds nuw i8, ptr %0, i64 440
  %30 = load ptr, ptr %29, align 8
  %31 = getelementptr inbounds nuw i8, ptr %1, i64 112
  store ptr %30, ptr %31, align 8
  store ptr %28, ptr %30, align 8
  store ptr %28, ptr %29, align 8
  %32 = load i32, ptr %17, align 8
  %33 = and i32 %32, 4
  %.not21 = icmp eq i32 %33, 0
  br i1 %.not21, label %34, label %42

34:                                               ; preds = %uv__async_start.exit.thread
  %35 = or disjoint i32 %32, 4
  store i32 %35, ptr %17, align 8
  %36 = and i32 %32, 8
  %.not22 = icmp eq i32 %36, 0
  br i1 %.not22, label %42, label %37

37:                                               ; preds = %34
  %38 = load ptr, ptr %15, align 8
  %39 = getelementptr inbounds nuw i8, ptr %38, i64 8
  %40 = load i32, ptr %39, align 8
  %41 = add i32 %40, 1
  store i32 %41, ptr %39, align 8
  br label %42

42:                                               ; preds = %uv__async_start.exit.thread, %34, %37, %uv__async_start.exit
  %.0 = phi i32 [ %14, %uv__async_start.exit ], [ 0, %37 ], [ 0, %34 ], [ 0, %uv__async_start.exit.thread ]
  ret i32 %.0
}